; Function Attrs: mustprogress nounwind uwtable
define dso_local void @_ZN4Luau7CodeGen15NativeModuleRef5resetEv(ptr nocapture noundef nonnull align 8 dereferenceable(8) %0) local_unnamed_addr #0 align 2 personality ptr @__gxx_personality_v0 {
  %2 = load ptr, ptr %0, align 8
  %3 = icmp eq ptr %2, null
  br i1 %3, label %12, label %4

4:                                                ; preds = %1
  %5 = atomicrmw sub ptr %2, i64 1 seq_cst, align 8
  %.not.i = icmp eq i64 %5, 1
  br i1 %.not.i, label %6, label %_ZNK4Luau7CodeGen12NativeModule7releaseEv.exit

6:                                                ; preds = %4
  %7 = getelementptr inbounds i8, ptr %2, i64 8
  %8 = load ptr, ptr %7, align 8
  invoke void @_ZN4Luau7CodeGen19SharedCodeAllocator31eraseNativeModuleIfUnreferencedERKNS0_12NativeModuleE(ptr noundef nonnull align 8 dereferenceable(112) %8, ptr noundef nonnull align 8 dereferenceable(72) %2)
          to label %_ZNK4Luau7CodeGen12NativeModule7releaseEv.exit unwind label %9

9:                                                ; preds = %6
  %10 = landingpad { ptr, i32 }
          catch ptr null
  %11 = extractvalue { ptr, i32 } %10, 0
  tail call void @__clang_call_terminate(ptr %11) #21
  unreachable

_ZNK4Luau7CodeGen12NativeModule7releaseEv.exit:   ; preds = %4, %6
  store ptr null, ptr %0, align 8
  br label %12

12:                                               ; preds = %1, %_ZNK4Luau7CodeGen12NativeModule7releaseEv.exit
  ret void
}